target datalayout = "e-m:e-p270:32:32-p271:32:32-p272:64:64-i64:64-i128:128-f80:128-n8:16:32:64-S128"
target triple = "x86_64-pc-linux-gnu"

%"class.icu_77::UnicodeString" = type { %"class.icu_77::Replaceable", %"union.icu_77::UnicodeString::StackBufferOrFields" }
%"class.icu_77::Replaceable" = type { %"class.icu_77::UObject" }
%"class.icu_77::UObject" = type { ptr }
%"union.icu_77::UnicodeString::StackBufferOrFields" = type { %struct.anon.0, [32 x i8] }
%struct.anon.0 = type { i16, i32, i32, ptr }
%"class.icu_77::RuleBasedNumberFormat" = type { %"class.icu_77::NumberFormat.base", ptr, ptr, i32, ptr, %"class.icu_77::Locale", ptr, ptr, ptr, ptr, i32, i8, ptr, ptr, %"class.icu_77::UnicodeString", i8, i8, i8, ptr }
%"class.icu_77::NumberFormat.base" = type <{ %"class.icu_77::Format", i8, [3 x i8], i32, i32, i32, i32, i8, i8, [4 x i16], [2 x i8], i32 }>
%"class.icu_77::Format" = type { %"class.icu_77::UObject", ptr, ptr }
%"class.icu_77::Locale" = type <{ %"class.icu_77::UObject", [12 x i8], [6 x i8], [4 x i8], [2 x i8], i32, [4 x i8], ptr, [157 x i8], [3 x i8], ptr, i8, [7 x i8] }>

; Function Attrs: mustprogress uwtable
define noundef ptr @_ZNK6icu_7721RuleBasedNumberFormat18createPluralFormatE11UPluralTypeRKNS_13UnicodeStringER10UErrorCode(ptr noundef nonnull align 8 dereferenceable(456) %0, i32 noundef %1, ptr noundef nonnull align 8 dereferenceable(64) %2, ptr noundef nonnull align 4 dereferenceable(4) %3) #2 align 2 personality ptr @__gxx_personality_v0 {
  %5 = alloca ptr, align 8
  %6 = alloca i32, align 4
  %7 = alloca ptr, align 8
  %8 = alloca ptr, align 8
  %9 = alloca ptr, align 8
  %10 = alloca i1, align 1
  %11 = alloca ptr, align 8
  %12 = alloca i32, align 4
  store ptr %0, ptr %5, align 8, !tbaa !3
  store i32 %1, ptr %6, align 4, !tbaa !218
  store ptr %2, ptr %7, align 8, !tbaa !76
  store ptr %3, ptr %8, align 8, !tbaa !51
  %13 = load ptr, ptr %5, align 8
  call void @llvm.lifetime.start.p0(i64 8, ptr %9) #14
  %14 = call noundef ptr @_ZN6icu_777UMemorynwEm(i64 noundef 408) #14
  %15 = icmp eq ptr %14, null
  store i1 false, ptr %10, align 1
  br i1 %15, label %22, label %16

16:                                               ; preds = %4
  store i1 true, ptr %10, align 1
  %17 = getelementptr inbounds nuw %"class.icu_77::RuleBasedNumberFormat", ptr %13, i32 0, i32 5
  %18 = load i32, ptr %6, align 4, !tbaa !218
  %19 = load ptr, ptr %7, align 8, !tbaa !76
  %20 = load ptr, ptr %8, align 8, !tbaa !51
  invoke void @_ZN6icu_7712PluralFormatC1ERKNS_6LocaleE11UPluralTypeRKNS_13UnicodeStringER10UErrorCode(ptr noundef nonnull align 8 dereferenceable(408) %14, ptr noundef nonnull align 8 dereferenceable(217) %17, i32 noundef %18, ptr noundef nonnull align 8 dereferenceable(64) %19, ptr noundef nonnull align 4 dereferenceable(4) %20)
          to label %21 unwind label %28

21:                                               ; preds = %16
  br label %22

22:                                               ; preds = %21, %4
  %23 = phi ptr [ %14, %21 ], [ null, %4 ]
  store ptr %23, ptr %9, align 8, !tbaa !220
  %24 = load ptr, ptr %9, align 8, !tbaa !220
  %25 = icmp eq ptr %24, null
  br i1 %25, label %26, label %35

26:                                               ; preds = %22
  %27 = load ptr, ptr %8, align 8, !tbaa !51
  store i32 7, ptr %27, align 4, !tbaa !28
  br label %35

28:                                               ; preds = %16
  %29 = landingpad { ptr, i32 }
          cleanup
  %30 = extractvalue { ptr, i32 } %29, 0
  store ptr %30, ptr %11, align 8
  %31 = extractvalue { ptr, i32 } %29, 1
  store i32 %31, ptr %12, align 4
  %32 = load i1, ptr %10, align 1
  br i1 %32, label %33, label %34

33:                                               ; preds = %28
  call void @_ZN6icu_777UMemorydlEPv(ptr noundef %14) #14
  br label %34

34:                                               ; preds = %33, %28
  call void @llvm.lifetime.end.p0(i64 8, ptr %9) #14
  br label %37

35:                                               ; preds = %26, %22
  %36 = load ptr, ptr %9, align 8, !tbaa !220
  call void @llvm.lifetime.end.p0(i64 8, ptr %9) #14
  ret ptr %36

37:                                               ; preds = %34
  %38 = load ptr, ptr %11, align 8
  %39 = load i32, ptr %12, align 4
  %40 = insertvalue { ptr, i32 } poison, ptr %38, 0
  %41 = insertvalue { ptr, i32 } %40, i32 %39, 1
  resume { ptr, i32 } %41
}