; Function Attrs: mustprogress uwtable
define noundef ptr @_ZNK6icu_7721RuleBasedNumberFormat18createPluralFormatE11UPluralTypeRKNS_13UnicodeStringER10UErrorCode(ptr noundef nonnull align 8 dereferenceable(456) %0, i32 noundef %1, ptr noundef nonnull align 8 dereferenceable(64) %2, ptr noundef nonnull align 4 dereferenceable(4) %3) local_unnamed_addr #3 align 2 personality ptr @__gxx_personality_v0 {
  %5 = tail call noundef ptr @_ZN6icu_777UMemorynwEm(i64 noundef 408) #21
  %6 = icmp eq ptr %5, null
  br i1 %6, label %9, label %7

7:                                                ; preds = %4
  %8 = getelementptr inbounds nuw i8, ptr %0, i64 96
  invoke void @_ZN6icu_7712PluralFormatC1ERKNS_6LocaleE11UPluralTypeRKNS_13UnicodeStringER10UErrorCode(ptr noundef nonnull align 8 dereferenceable(408) %5, ptr noundef nonnull align 8 dereferenceable(217) %8, i32 noundef %1, ptr noundef nonnull align 8 dereferenceable(64) %2, ptr noundef nonnull align 4 dereferenceable(4) %3)
          to label %12 unwind label %10

9:                                                ; preds = %4
  store i32 7, ptr %3, align 4, !tbaa !19
  br label %12

10:                                               ; preds = %7
  %11 = landingpad { ptr, i32 }
          cleanup
  tail call void @_ZN6icu_777UMemorydlEPv(ptr noundef nonnull %5) #21
  resume { ptr, i32 } %11

12:                                               ; preds = %7, %9
  ret ptr %5
}